; Function Attrs: mustprogress nofree norecurse nosync nounwind memory(argmem: readwrite) uwtable
define internal void @_ZN7rocksdb12_GLOBAL__N_116ROT13BlockCipher7EncryptEPc(ptr dead_on_unwind noalias writable writeonly sret(%"class.rocksdb::Status") align 8 captures(none) %0, ptr noundef nonnull readonly align 8 captures(none) dereferenceable(40) %1, ptr noundef captures(none) %2) unnamed_addr #21 align 2 personality ptr @__gxx_personality_v0 {
  %4 = getelementptr inbounds nuw i8, ptr %1, i64 32
  %5 = load i64, ptr %4, align 8, !tbaa !240
  %.not = icmp eq i64 %5, 0
  br i1 %.not, label %._crit_edge, label %.lr.ph

._crit_edge:                                      ; preds = %.lr.ph, %3
  %6 = getelementptr inbounds nuw i8, ptr %0, i64 8
  store ptr null, ptr %6, align 8, !tbaa !124, !alias.scope !451
  tail call void @llvm.memset.p0.i64(ptr noundef nonnull align 8 dereferenceable(16) %0, i8 0, i64 6, i1 false), !alias.scope !451
  ret void

.lr.ph:                                           ; preds = %3, %.lr.ph
  %.04 = phi i64 [ %10, %.lr.ph ], [ 0, %3 ]
  %7 = getelementptr inbounds nuw i8, ptr %2, i64 %.04
  %8 = load i8, ptr %7, align 1, !tbaa !85
  %9 = add i8 %8, 13
  store i8 %9, ptr %7, align 1, !tbaa !85
  %10 = add nuw i64 %.04, 1
  %11 = load i64, ptr %4, align 8, !tbaa !240
  %12 = icmp ult i64 %10, %11
  br i1 %12, label %.lr.ph, label %._crit_edge, !llvm.loop !454
}